target datalayout = "e-m:e-p270:32:32-p271:32:32-p272:64:64-i64:64-i128:128-f80:128-n8:16:32:64-S128"
target triple = "x86_64-pc-linux-gnu"

@log_line_start.s_infotype = internal constant [7 x ptr] [ptr @.str.16, ptr @.str.17, ptr @.str.18, ptr @.str.19, ptr @.str.20, ptr @.str.19, ptr @.str.20], align 16
@.str.21 = private unnamed_addr constant [7 x i8] c"%s%s%s\00", align 1

; Function Attrs: nounwind uwtable
define internal void @log_line_start(ptr noundef %0, ptr noundef %1, ptr noundef %2, i32 noundef %3) #0 {
  %5 = alloca ptr, align 8
  %6 = alloca ptr, align 8
  %7 = alloca ptr, align 8
  %8 = alloca i32, align 4
  store ptr %0, ptr %5, align 8, !tbaa !29
  store ptr %1, ptr %6, align 8, !tbaa !10
  store ptr %2, ptr %7, align 8, !tbaa !10
  store i32 %3, ptr %8, align 4, !tbaa !8
  %9 = load ptr, ptr %6, align 8, !tbaa !10
  %10 = icmp ne ptr %9, null
  br i1 %10, label %11, label %16

11:                                               ; preds = %4
  %12 = load ptr, ptr %6, align 8, !tbaa !10
  %13 = load i8, ptr %12, align 1, !tbaa !40
  %14 = sext i8 %13 to i32
  %15 = icmp ne i32 %14, 0
  br i1 %15, label %24, label %16

16:                                               ; preds = %11, %4
  %17 = load ptr, ptr %7, align 8, !tbaa !10
  %18 = icmp ne ptr %17, null
  br i1 %18, label %19, label %33

19:                                               ; preds = %16
  %20 = load ptr, ptr %7, align 8, !tbaa !10
  %21 = load i8, ptr %20, align 1, !tbaa !40
  %22 = sext i8 %21 to i32
  %23 = icmp ne i32 %22, 0
  br i1 %23, label %24, label %33

24:                                               ; preds = %19, %11
  %25 = load ptr, ptr %5, align 8, !tbaa !29
  %26 = load ptr, ptr %6, align 8, !tbaa !10
  %27 = load ptr, ptr %7, align 8, !tbaa !10
  %28 = load i32, ptr %8, align 4, !tbaa !8
  %29 = zext i32 %28 to i64
  %30 = getelementptr inbounds nuw [7 x ptr], ptr @log_line_start.s_infotype, i64 0, i64 %29
  %31 = load ptr, ptr %30, align 8, !tbaa !10
  %32 = call i32 (ptr, ptr, ...) @curl_mfprintf(ptr noundef %25, ptr noundef @.str.21, ptr noundef %26, ptr noundef %27, ptr noundef %31)
  br label %40

33:                                               ; preds = %19, %16
  %34 = load i32, ptr %8, align 4, !tbaa !8
  %35 = zext i32 %34 to i64
  %36 = getelementptr inbounds nuw [7 x ptr], ptr @log_line_start.s_infotype, i64 0, i64 %35
  %37 = load ptr, ptr %36, align 8, !tbaa !10
  %38 = load ptr, ptr %5, align 8, !tbaa !29
  %39 = call i32 @fputs(ptr noundef %37, ptr noundef %38)
  br label %40

40:                                               ; preds = %33, %24
  ret void
}