; Function Attrs: nounwind uwtable
define internal fastcc void @log_line_start(ptr noundef nonnull %0, ptr noundef nonnull %1, ptr noundef nonnull %2, i32 noundef %3) unnamed_addr #0 {
  %5 = load i8, ptr %1, align 1, !tbaa !35
  %.not = icmp eq i8 %5, 0
  br i1 %.not, label %6, label %8

6:                                                ; preds = %4
  %7 = load i8, ptr %2, align 1, !tbaa !35
  %.not10 = icmp eq i8 %7, 0
  br i1 %.not10, label %13, label %8

8:                                                ; preds = %6, %4
  %9 = zext i32 %3 to i64
  %10 = getelementptr inbounds nuw [7 x ptr], ptr @log_line_start.s_infotype, i64 0, i64 %9
  %11 = load ptr, ptr %10, align 8, !tbaa !44
  %12 = tail call i32 (ptr, ptr, ...) @curl_mfprintf(ptr noundef nonnull %0, ptr noundef nonnull @.str.21, ptr noundef nonnull %1, ptr noundef nonnull %2, ptr noundef %11) #5
  br label %18

13:                                               ; preds = %6
  %14 = zext i32 %3 to i64
  %15 = getelementptr inbounds nuw [7 x ptr], ptr @log_line_start.s_infotype, i64 0, i64 %14
  %16 = load ptr, ptr %15, align 8, !tbaa !44
  %17 = tail call i32 @fputs(ptr noundef %16, ptr noundef nonnull %0)
  br label %18

18:                                               ; preds = %13, %8
  ret void
}